target datalayout = "e-m:e-p270:32:32-p271:32:32-p272:64:64-i64:64-i128:128-f80:128-n8:16:32:64-S128"
target triple = "x86_64-pc-linux-gnu"

%struct.AudioEchoContext = type { ptr, float, float, ptr, ptr, ptr, ptr, i32, i32, ptr, i32, i32, ptr, i32, i64, ptr }

; Function Attrs: alwaysinline nounwind willreturn memory(none) uwtable
define internal double @av_clipd_c(double noundef %0, double noundef %1, double noundef %2) #5 {
  %4 = alloca double, align 8
  %5 = alloca double, align 8
  %6 = alloca double, align 8
  store double %0, ptr %4, align 8, !tbaa !67
  store double %1, ptr %5, align 8, !tbaa !67
  store double %2, ptr %6, align 8, !tbaa !67
  %7 = load double, ptr %4, align 8, !tbaa !67
  %8 = load double, ptr %5, align 8, !tbaa !67
  %9 = fcmp nsz ogt double %7, %8
  br i1 %9, label %10, label %12

10:                                               ; preds = %3
  %11 = load double, ptr %4, align 8, !tbaa !67
  br label %14

12:                                               ; preds = %3
  %13 = load double, ptr %5, align 8, !tbaa !67
  br label %14

14:                                               ; preds = %12, %10
  %15 = phi nsz double [ %11, %10 ], [ %13, %12 ]
  %16 = load double, ptr %6, align 8, !tbaa !67
  %17 = fcmp nsz ogt double %15, %16
  br i1 %17, label %18, label %20

18:                                               ; preds = %14
  %19 = load double, ptr %6, align 8, !tbaa !67
  br label %30

20:                                               ; preds = %14
  %21 = load double, ptr %4, align 8, !tbaa !67
  %22 = load double, ptr %5, align 8, !tbaa !67
  %23 = fcmp nsz ogt double %21, %22
  br i1 %23, label %24, label %26

24:                                               ; preds = %20
  %25 = load double, ptr %4, align 8, !tbaa !67
  br label %28

26:                                               ; preds = %20
  %27 = load double, ptr %5, align 8, !tbaa !67
  br label %28

28:                                               ; preds = %26, %24
  %29 = phi nsz double [ %25, %24 ], [ %27, %26 ]
  br label %30

30:                                               ; preds = %28, %18
  %31 = phi nsz double [ %19, %18 ], [ %29, %28 ]
  ret double %31
}

; Function Attrs: nounwind uwtable
define internal void @echo_samples_dblp(ptr noundef %0, ptr noundef %1, ptr noundef %2, ptr noundef %3, i32 noundef %4, i32 noundef %5) #1 {
  %7 = alloca ptr, align 8
  %8 = alloca ptr, align 8
  %9 = alloca ptr, align 8
  %10 = alloca ptr, align 8
  %11 = alloca i32, align 4
  %12 = alloca i32, align 4
  %13 = alloca double, align 8
  %14 = alloca double, align 8
  %15 = alloca i32, align 4
  %16 = alloca i32, align 4
  %17 = alloca i32, align 4
  %18 = alloca i32, align 4
  %19 = alloca i32, align 4
  %20 = alloca i32, align 4
  %21 = alloca ptr, align 8
  %22 = alloca ptr, align 8
  %23 = alloca ptr, align 8
  %24 = alloca double, align 8
  %25 = alloca double, align 8
  %26 = alloca i32, align 4
  store ptr %0, ptr %7, align 8, !tbaa !22
  store ptr %1, ptr %8, align 8, !tbaa !66
  store ptr %2, ptr %9, align 8, !tbaa !66
  store ptr %3, ptr %10, align 8, !tbaa !66
  store i32 %4, ptr %11, align 4, !tbaa !33
  store i32 %5, ptr %12, align 4, !tbaa !33
  call void @llvm.lifetime.start.p0(i64 8, ptr %13) #8
  %27 = load ptr, ptr %7, align 8, !tbaa !22
  %28 = getelementptr inbounds nuw %struct.AudioEchoContext, ptr %27, i32 0, i32 2
  %29 = load float, ptr %28, align 4, !tbaa !62
  %30 = fpext nsz float %29 to double
  store double %30, ptr %13, align 8, !tbaa !67
  call void @llvm.lifetime.start.p0(i64 8, ptr %14) #8
  %31 = load ptr, ptr %7, align 8, !tbaa !22
  %32 = getelementptr inbounds nuw %struct.AudioEchoContext, ptr %31, i32 0, i32 1
  %33 = load float, ptr %32, align 8, !tbaa !61
  %34 = fpext nsz float %33 to double
  store double %34, ptr %14, align 8, !tbaa !67
  call void @llvm.lifetime.start.p0(i64 4, ptr %15) #8
  %35 = load ptr, ptr %7, align 8, !tbaa !22
  %36 = getelementptr inbounds nuw %struct.AudioEchoContext, ptr %35, i32 0, i32 7
  %37 = load i32, ptr %36, align 8, !tbaa !35
  store i32 %37, ptr %15, align 4, !tbaa !33
  call void @llvm.lifetime.start.p0(i64 4, ptr %16) #8
  %38 = load ptr, ptr %7, align 8, !tbaa !22
  %39 = getelementptr inbounds nuw %struct.AudioEchoContext, ptr %38, i32 0, i32 10
  %40 = load i32, ptr %39, align 8, !tbaa !59
  store i32 %40, ptr %16, align 4, !tbaa !33
  call void @llvm.lifetime.start.p0(i64 4, ptr %17) #8
  call void @llvm.lifetime.start.p0(i64 4, ptr %18) #8
  call void @llvm.lifetime.start.p0(i64 4, ptr %19) #8
  call void @llvm.lifetime.start.p0(i64 4, ptr %20) #8
  %41 = load i32, ptr %20, align 4, !tbaa !33
  store i32 %41, ptr %20, align 4, !tbaa !33
  store i32 0, ptr %19, align 4, !tbaa !33
  br label %42

42:                                               ; preds = %154, %6
  %43 = load i32, ptr %19, align 4, !tbaa !33
  %44 = load i32, ptr %12, align 4, !tbaa !33
  %45 = icmp slt i32 %43, %44
  br i1 %45, label %46, label %157

46:                                               ; preds = %42
  call void @llvm.lifetime.start.p0(i64 8, ptr %21) #8
  %47 = load ptr, ptr %9, align 8, !tbaa !66
  %48 = load i32, ptr %19, align 4, !tbaa !33
  %49 = sext i32 %48 to i64
  %50 = getelementptr inbounds ptr, ptr %47, i64 %49
  %51 = load ptr, ptr %50, align 8, !tbaa !69
  store ptr %51, ptr %21, align 8, !tbaa !70
  call void @llvm.lifetime.start.p0(i64 8, ptr %22) #8
  %52 = load ptr, ptr %10, align 8, !tbaa !66
  %53 = load i32, ptr %19, align 4, !tbaa !33
  %54 = sext i32 %53 to i64
  %55 = getelementptr inbounds ptr, ptr %52, i64 %54
  %56 = load ptr, ptr %55, align 8, !tbaa !69
  store ptr %56, ptr %22, align 8, !tbaa !70
  call void @llvm.lifetime.start.p0(i64 8, ptr %23) #8
  %57 = load ptr, ptr %8, align 8, !tbaa !66
  %58 = load i32, ptr %19, align 4, !tbaa !33
  %59 = sext i32 %58 to i64
  %60 = getelementptr inbounds ptr, ptr %57, i64 %59
  %61 = load ptr, ptr %60, align 8, !tbaa !69
  store ptr %61, ptr %23, align 8, !tbaa !70
  %62 = load ptr, ptr %7, align 8, !tbaa !22
  %63 = getelementptr inbounds nuw %struct.AudioEchoContext, ptr %62, i32 0, i32 8
  %64 = load i32, ptr %63, align 4, !tbaa !71
  store i32 %64, ptr %20, align 4, !tbaa !33
  store i32 0, ptr %17, align 4, !tbaa !33
  br label %65

65:                                               ; preds = %146, %46
  %66 = load i32, ptr %17, align 4, !tbaa !33
  %67 = load i32, ptr %11, align 4, !tbaa !33
  %68 = icmp slt i32 %66, %67
  br i1 %68, label %69, label %153

69:                                               ; preds = %65
  call void @llvm.lifetime.start.p0(i64 8, ptr %24) #8
  call void @llvm.lifetime.start.p0(i64 8, ptr %25) #8
  %70 = load ptr, ptr %21, align 8, !tbaa !70
  %71 = load double, ptr %70, align 8, !tbaa !67
  store double %71, ptr %25, align 8, !tbaa !67
  %72 = load double, ptr %25, align 8, !tbaa !67
  %73 = load double, ptr %14, align 8, !tbaa !67
  %74 = fmul nsz double %72, %73
  store double %74, ptr %24, align 8, !tbaa !67
  store i32 0, ptr %18, align 4, !tbaa !33
  br label %75

75:                                               ; preds = %117, %69
  %76 = load i32, ptr %18, align 4, !tbaa !33
  %77 = load i32, ptr %15, align 4, !tbaa !33
  %78 = icmp slt i32 %76, %77
  br i1 %78, label %79, label %120

79:                                               ; preds = %75
  call void @llvm.lifetime.start.p0(i64 4, ptr %26) #8
  %80 = load i32, ptr %20, align 4, !tbaa !33
  %81 = load i32, ptr %16, align 4, !tbaa !33
  %82 = add nsw i32 %80, %81
  %83 = load ptr, ptr %7, align 8, !tbaa !22
  %84 = getelementptr inbounds nuw %struct.AudioEchoContext, ptr %83, i32 0, i32 12
  %85 = load ptr, ptr %84, align 8, !tbaa !36
  %86 = load i32, ptr %18, align 4, !tbaa !33
  %87 = sext i32 %86 to i64
  %88 = getelementptr inbounds i32, ptr %85, i64 %87
  %89 = load i32, ptr %88, align 4, !tbaa !33
  %90 = sub nsw i32 %82, %89
  store i32 %90, ptr %26, align 4, !tbaa !33
  %91 = load i32, ptr %26, align 4, !tbaa !33
  %92 = load i32, ptr %16, align 4, !tbaa !33
  %93 = icmp sge i32 %91, %92
  br i1 %93, label %94, label %98

94:                                               ; preds = %79
  %95 = load i32, ptr %26, align 4, !tbaa !33
  %96 = load i32, ptr %16, align 4, !tbaa !33
  %97 = sub nsw i32 %95, %96
  br label %100

98:                                               ; preds = %79
  %99 = load i32, ptr %26, align 4, !tbaa !33
  br label %100

100:                                              ; preds = %98, %94
  %101 = phi i32 [ %97, %94 ], [ %99, %98 ]
  store i32 %101, ptr %26, align 4, !tbaa !33
  %102 = load ptr, ptr %23, align 8, !tbaa !70
  %103 = load i32, ptr %26, align 4, !tbaa !33
  %104 = sext i32 %103 to i64
  %105 = getelementptr inbounds double, ptr %102, i64 %104
  %106 = load double, ptr %105, align 8, !tbaa !67
  %107 = load ptr, ptr %7, align 8, !tbaa !22
  %108 = getelementptr inbounds nuw %struct.AudioEchoContext, ptr %107, i32 0, i32 6
  %109 = load ptr, ptr %108, align 8, !tbaa !34
  %110 = load i32, ptr %18, align 4, !tbaa !33
  %111 = sext i32 %110 to i64
  %112 = getelementptr inbounds float, ptr %109, i64 %111
  %113 = load float, ptr %112, align 4, !tbaa !37
  %114 = fpext nsz float %113 to double
  %115 = load double, ptr %24, align 8, !tbaa !67
  %116 = call nsz double @llvm.fmuladd.f64(double %106, double %114, double %115)
  store double %116, ptr %24, align 8, !tbaa !67
  call void @llvm.lifetime.end.p0(i64 4, ptr %26) #8
  br label %117

117:                                              ; preds = %100
  %118 = load i32, ptr %18, align 4, !tbaa !33
  %119 = add nsw i32 %118, 1
  store i32 %119, ptr %18, align 4, !tbaa !33
  br label %75, !llvm.loop !72

120:                                              ; preds = %75
  %121 = load double, ptr %13, align 8, !tbaa !67
  %122 = load double, ptr %24, align 8, !tbaa !67
  %123 = fmul nsz double %122, %121
  store double %123, ptr %24, align 8, !tbaa !67
  %124 = load double, ptr %24, align 8, !tbaa !67
  %125 = call nsz double @av_clipd_c(double noundef %124, double noundef -1.000000e+00, double noundef 1.000000e+00) #9
  %126 = load ptr, ptr %22, align 8, !tbaa !70
  store double %125, ptr %126, align 8, !tbaa !67
  %127 = load double, ptr %25, align 8, !tbaa !67
  %128 = load ptr, ptr %23, align 8, !tbaa !70
  %129 = load i32, ptr %20, align 4, !tbaa !33
  %130 = sext i32 %129 to i64
  %131 = getelementptr inbounds double, ptr %128, i64 %130
  store double %127, ptr %131, align 8, !tbaa !67
  %132 = load i32, ptr %20, align 4, !tbaa !33
  %133 = add nsw i32 %132, 1
  %134 = load i32, ptr %16, align 4, !tbaa !33
  %135 = icmp sge i32 %133, %134
  br i1 %135, label %136, label %141

136:                                              ; preds = %120
  %137 = load i32, ptr %20, align 4, !tbaa !33
  %138 = add nsw i32 %137, 1
  %139 = load i32, ptr %16, align 4, !tbaa !33
  %140 = sub nsw i32 %138, %139
  br label %144

141:                                              ; preds = %120
  %142 = load i32, ptr %20, align 4, !tbaa !33
  %143 = add nsw i32 %142, 1
  br label %144

144:                                              ; preds = %141, %136
  %145 = phi i32 [ %140, %136 ], [ %143, %141 ]
  store i32 %145, ptr %20, align 4, !tbaa !33
  call void @llvm.lifetime.end.p0(i64 8, ptr %25) #8
  call void @llvm.lifetime.end.p0(i64 8, ptr %24) #8
  br label %146

146:                                              ; preds = %144
  %147 = load i32, ptr %17, align 4, !tbaa !33
  %148 = add nsw i32 %147, 1
  store i32 %148, ptr %17, align 4, !tbaa !33
  %149 = load ptr, ptr %21, align 8, !tbaa !70
  %150 = getelementptr inbounds nuw double, ptr %149, i32 1
  store ptr %150, ptr %21, align 8, !tbaa !70
  %151 = load ptr, ptr %22, align 8, !tbaa !70
  %152 = getelementptr inbounds nuw double, ptr %151, i32 1
  store ptr %152, ptr %22, align 8, !tbaa !70
  br label %65, !llvm.loop !73

153:                                              ; preds = %65
  call void @llvm.lifetime.end.p0(i64 8, ptr %23) #8
  call void @llvm.lifetime.end.p0(i64 8, ptr %22) #8
  call void @llvm.lifetime.end.p0(i64 8, ptr %21) #8
  br label %154

154:                                              ; preds = %153
  %155 = load i32, ptr %19, align 4, !tbaa !33
  %156 = add nsw i32 %155, 1
  store i32 %156, ptr %19, align 4, !tbaa !33
  br label %42, !llvm.loop !74

157:                                              ; preds = %42
  %158 = load i32, ptr %20, align 4, !tbaa !33
  %159 = load ptr, ptr %7, align 8, !tbaa !22
  %160 = getelementptr inbounds nuw %struct.AudioEchoContext, ptr %159, i32 0, i32 8
  store i32 %158, ptr %160, align 4, !tbaa !71
  call void @llvm.lifetime.end.p0(i64 4, ptr %20) #8
  call void @llvm.lifetime.end.p0(i64 4, ptr %19) #8
  call void @llvm.lifetime.end.p0(i64 4, ptr %18) #8
  call void @llvm.lifetime.end.p0(i64 4, ptr %17) #8
  call void @llvm.lifetime.end.p0(i64 4, ptr %16) #8
  call void @llvm.lifetime.end.p0(i64 4, ptr %15) #8
  call void @llvm.lifetime.end.p0(i64 8, ptr %14) #8
  call void @llvm.lifetime.end.p0(i64 8, ptr %13) #8
  ret void
}