; Function Attrs: nofree norecurse nosync nounwind memory(readwrite, inaccessiblemem: none) uwtable
define internal void @echo_samples_dblp(ptr noundef captures(none) %0, ptr noundef readonly captures(none) %1, ptr noundef readonly captures(none) %2, ptr noundef readonly captures(none) %3, i32 noundef %4, i32 noundef %5) #4 {
  %7 = getelementptr inbounds nuw i8, ptr %0, i64 12
  %8 = load float, ptr %7, align 4, !tbaa !71
  %9 = fpext nsz float %8 to double
  %10 = getelementptr inbounds nuw i8, ptr %0, i64 8
  %11 = load float, ptr %10, align 8, !tbaa !70
  %12 = fpext nsz float %11 to double
  %13 = getelementptr inbounds nuw i8, ptr %0, i64 48
  %14 = load i32, ptr %13, align 8, !tbaa !34
  %15 = getelementptr inbounds nuw i8, ptr %0, i64 64
  %16 = load i32, ptr %15, align 8, !tbaa !68
  %17 = icmp sgt i32 %5, 0
  br i1 %17, label %.lr.ph, label %._crit_edge

.lr.ph:                                           ; preds = %6
  %18 = getelementptr inbounds nuw i8, ptr %0, i64 52
  %19 = load i32, ptr %18, align 4, !tbaa !73
  %20 = icmp sgt i32 %4, 0
  %21 = getelementptr inbounds nuw i8, ptr %0, i64 72
  %22 = getelementptr inbounds nuw i8, ptr %0, i64 40
  br i1 %20, label %.lr.ph.split.us, label %._crit_edge

.lr.ph.split.us:                                  ; preds = %.lr.ph
  %23 = icmp sgt i32 %14, 0
  br i1 %23, label %.lr.ph.split.us.split.us, label %.lr.ph70.us.preheader

.lr.ph70.us.preheader:                            ; preds = %.lr.ph.split.us
  %wide.trip.count = zext nneg i32 %5 to i64
  br label %.lr.ph70.us

.lr.ph.split.us.split.us:                         ; preds = %.lr.ph.split.us
  %24 = load ptr, ptr %21, align 8, !tbaa !35
  %25 = load ptr, ptr %22, align 8, !tbaa !32
  %wide.trip.count100 = zext nneg i32 %5 to i64
  %wide.trip.count94 = zext nneg i32 %14 to i64
  br label %.lr.ph70.us.us

.lr.ph70.us.us:                                   ; preds = %._crit_edge71.split.us.us.us, %.lr.ph.split.us.split.us
  %indvars.iv97 = phi i64 [ %indvars.iv.next98, %._crit_edge71.split.us.us.us ], [ 0, %.lr.ph.split.us.split.us ]
  %26 = getelementptr inbounds nuw ptr, ptr %2, i64 %indvars.iv97
  %27 = load ptr, ptr %26, align 8, !tbaa !74
  %28 = getelementptr inbounds nuw ptr, ptr %3, i64 %indvars.iv97
  %29 = load ptr, ptr %28, align 8, !tbaa !74
  %30 = getelementptr inbounds nuw ptr, ptr %1, i64 %indvars.iv97
  %31 = load ptr, ptr %30, align 8, !tbaa !74
  br label %.lr.ph.us.us.us

.lr.ph.us.us.us:                                  ; preds = %._crit_edge.us.us.us, %.lr.ph70.us.us
  %.068.us.us.us = phi i32 [ 0, %.lr.ph70.us.us ], [ %57, %._crit_edge.us.us.us ]
  %.05667.us.us.us = phi ptr [ %29, %.lr.ph70.us.us ], [ %59, %._crit_edge.us.us.us ]
  %.05766.us.us.us = phi ptr [ %27, %.lr.ph70.us.us ], [ %58, %._crit_edge.us.us.us ]
  %.165.us.us.us = phi i32 [ %19, %.lr.ph70.us.us ], [ %56, %._crit_edge.us.us.us ]
  %32 = load double, ptr %.05766.us.us.us, align 8, !tbaa !75
  %33 = fmul nsz double %32, %12
  %34 = add nsw i32 %.165.us.us.us, %16
  br label %35

35:                                               ; preds = %35, %.lr.ph.us.us.us
  %indvars.iv91 = phi i64 [ %indvars.iv.next92, %35 ], [ 0, %.lr.ph.us.us.us ]
  %.05463.us.us.us = phi double [ %47, %35 ], [ %33, %.lr.ph.us.us.us ]
  %36 = getelementptr inbounds nuw i32, ptr %24, i64 %indvars.iv91
  %37 = load i32, ptr %36, align 4, !tbaa !33
  %38 = sub i32 %34, %37
  %.not62.us.us.us = icmp slt i32 %38, %16
  %39 = select i1 %.not62.us.us.us, i32 0, i32 %16
  %40 = sub nsw i32 %38, %39
  %41 = sext i32 %40 to i64
  %42 = getelementptr inbounds double, ptr %31, i64 %41
  %43 = load double, ptr %42, align 8, !tbaa !75
  %44 = getelementptr inbounds nuw float, ptr %25, i64 %indvars.iv91
  %45 = load float, ptr %44, align 4, !tbaa !36
  %46 = fpext nsz float %45 to double
  %47 = tail call nsz double @llvm.fmuladd.f64(double %43, double %46, double %.05463.us.us.us)
  %indvars.iv.next92 = add nuw nsw i64 %indvars.iv91, 1
  %exitcond95.not = icmp eq i64 %indvars.iv.next92, %wide.trip.count94
  br i1 %exitcond95.not, label %._crit_edge.us.us.us, label %35, !llvm.loop !77

._crit_edge.us.us.us:                             ; preds = %35
  %48 = fmul nsz double %47, %9
  %49 = fcmp nsz ogt double %48, -1.000000e+00
  %50 = select nsz i1 %49, double %48, double -1.000000e+00
  %51 = fcmp nsz ogt double %50, 1.000000e+00
  %..i.us.us.us = select nsz i1 %51, double 1.000000e+00, double %50
  store double %..i.us.us.us, ptr %.05667.us.us.us, align 8, !tbaa !75
  %52 = sext i32 %.165.us.us.us to i64
  %53 = getelementptr inbounds double, ptr %31, i64 %52
  store double %32, ptr %53, align 8, !tbaa !75
  %54 = add nsw i32 %.165.us.us.us, 1
  %.not.us.us.us = icmp slt i32 %54, %16
  %55 = select i1 %.not.us.us.us, i32 0, i32 %16
  %56 = sub nsw i32 %54, %55
  %57 = add nuw nsw i32 %.068.us.us.us, 1
  %58 = getelementptr inbounds nuw i8, ptr %.05766.us.us.us, i64 8
  %59 = getelementptr inbounds nuw i8, ptr %.05667.us.us.us, i64 8
  %exitcond96.not = icmp eq i32 %57, %4
  br i1 %exitcond96.not, label %._crit_edge71.split.us.us.us, label %.lr.ph.us.us.us, !llvm.loop !78

._crit_edge71.split.us.us.us:                     ; preds = %._crit_edge.us.us.us
  %indvars.iv.next98 = add nuw nsw i64 %indvars.iv97, 1
  %exitcond101.not = icmp eq i64 %indvars.iv.next98, %wide.trip.count100
  br i1 %exitcond101.not, label %._crit_edge, label %.lr.ph70.us.us, !llvm.loop !79

.lr.ph70.us:                                      ; preds = %.lr.ph70.us.preheader, %._crit_edge71.split.us80
  %indvars.iv = phi i64 [ 0, %.lr.ph70.us.preheader ], [ %indvars.iv.next, %._crit_edge71.split.us80 ]
  %60 = getelementptr inbounds nuw ptr, ptr %2, i64 %indvars.iv
  %61 = load ptr, ptr %60, align 8, !tbaa !74
  %62 = getelementptr inbounds nuw ptr, ptr %3, i64 %indvars.iv
  %63 = load ptr, ptr %62, align 8, !tbaa !74
  %64 = getelementptr inbounds nuw ptr, ptr %1, i64 %indvars.iv
  %65 = load ptr, ptr %64, align 8, !tbaa !74
  br label %66

66:                                               ; preds = %.lr.ph70.us, %66
  %.068.us74 = phi i32 [ 0, %.lr.ph70.us ], [ %78, %66 ]
  %.05667.us75 = phi ptr [ %63, %.lr.ph70.us ], [ %80, %66 ]
  %.05766.us76 = phi ptr [ %61, %.lr.ph70.us ], [ %79, %66 ]
  %.165.us77 = phi i32 [ %19, %.lr.ph70.us ], [ %77, %66 ]
  %67 = load double, ptr %.05766.us76, align 8, !tbaa !75
  %68 = fmul nsz double %67, %12
  %69 = fmul nsz double %68, %9
  %70 = fcmp nsz ogt double %69, -1.000000e+00
  %71 = select nsz i1 %70, double %69, double -1.000000e+00
  %72 = fcmp nsz ogt double %71, 1.000000e+00
  %..i.us78 = select nsz i1 %72, double 1.000000e+00, double %71
  store double %..i.us78, ptr %.05667.us75, align 8, !tbaa !75
  %73 = sext i32 %.165.us77 to i64
  %74 = getelementptr inbounds double, ptr %65, i64 %73
  store double %67, ptr %74, align 8, !tbaa !75
  %75 = add nsw i32 %.165.us77, 1
  %.not.us79 = icmp slt i32 %75, %16
  %76 = select i1 %.not.us79, i32 0, i32 %16
  %77 = sub nsw i32 %75, %76
  %78 = add nuw nsw i32 %.068.us74, 1
  %79 = getelementptr inbounds nuw i8, ptr %.05766.us76, i64 8
  %80 = getelementptr inbounds nuw i8, ptr %.05667.us75, i64 8
  %exitcond.not = icmp eq i32 %78, %4
  br i1 %exitcond.not, label %._crit_edge71.split.us80, label %66, !llvm.loop !78

._crit_edge71.split.us80:                         ; preds = %66
  %indvars.iv.next = add nuw nsw i64 %indvars.iv, 1
  %exitcond90.not = icmp eq i64 %indvars.iv.next, %wide.trip.count
  br i1 %exitcond90.not, label %._crit_edge, label %.lr.ph70.us, !llvm.loop !79

._crit_edge:                                      ; preds = %._crit_edge71.split.us80, %._crit_edge71.split.us.us.us, %.lr.ph, %6
  %.058.lcssa = phi i32 [ undef, %6 ], [ %19, %.lr.ph ], [ %56, %._crit_edge71.split.us.us.us ], [ %77, %._crit_edge71.split.us80 ]
  %81 = getelementptr inbounds nuw i8, ptr %0, i64 52
  store i32 %.058.lcssa, ptr %81, align 4, !tbaa !73
  ret void
}